GameObject::createGlow
_ZN10GameObject10createGlowESs
GameObject::getGlowFrame
_ZN10GameObject12getGlowFrameESs
GameObject::getColorFrame
_ZN10GameObject13getColorFrameESs
GameObject::addCustomChild
_ZN10GameObject14addCustomChildESsN7cocos2d7CCPointEi
GameObject::addInternalChild
_ZN10GameObject16addInternalChildEPN7cocos2d8CCSpriteESsNS0_7CCPointEi
GameObject::objectFromString
_ZN10GameObject16objectFromStringESsb
GameObject::updateTextObject
_ZN10GameObject16updateTextObjectESsb
GameObject::customObjectSetup
_ZN10GameObject17customObjectSetupERSt3mapISsSsSt4lessISsESaISt4pairIKSsSsEEE
GameObject::addCustomBlackChild
_ZN10GameObject19addCustomBlackChildESsfb
GameObject::addCustomColorChild
_ZN10GameObject19addCustomColorChildESs
GameObject::addInternalGlowChild
_ZN10GameObject20addInternalGlowChildESsN7cocos2d7CCPointE
GameObject::loadGroupsFromString
_ZN10GameObject20loadGroupsFromStringESs
GameObject::addInternalCustomColorChild
_ZN10GameObject27addInternalCustomColorChildESsN7cocos2d7CCPointEi
LevelTools::logSaveInfo
_ZN10LevelTools11logSaveInfoESs
LevelTools::base64DecodeString
_ZN10LevelTools18base64DecodeStringESs
LevelTools::base64EncodeString
_ZN10LevelTools18base64EncodeStringESs
LevelTools::verifyLevelIntegrity
_ZN10LevelTools20verifyLevelIntegrityESsi
PauseLayer::createToggleButton
_ZN10PauseLayer18createToggleButtonESsMN7cocos2d8CCObjectEFvPS1_EbPNS0_6CCMenuENS0_7CCPointE
RingObject::customObjectSetup
_ZN10RingObject17customObjectSetupERSt3mapISsSsSt4lessISsESaISt4pairIKSsSsEEE
SetIDPopup::init
_ZN10SetIDPopup4initEiiiSsSsbi
SetIDPopup::create
_ZN10SetIDPopup6createEiiiSsSsbi
ColorAction::setupFromString
_ZN11ColorAction15setupFromStringESs
GJGameLevel::setLevelName
_ZN11GJGameLevel12setLevelNameESs
GJGameLevel::setCapacityString
_ZN11GJGameLevel17setCapacityStringESs
GameManager::recountUserStats
_ZN11GameManager16recountUserStatsESs
GameManager::addNewCustomObject
_ZN11GameManager18addNewCustomObjectESs
GameManager::claimItemsResponse
_ZN11GameManager18claimItemsResponseESs
GameToolbox::openRateURL
_ZN11GameToolbox11openRateURLESsSs
GameToolbox::hsvFromString
_ZN11GameToolbox13hsvFromStringESsPKc
GameToolbox::createHashString
_ZN11GameToolbox16createHashStringESsi
GameToolbox::stringSetupToMap
_ZN11GameToolbox16stringSetupToMapESsPKc
GameToolbox::stringSetupToDict
_ZN11GameToolbox17stringSetupToDictESsPKc
ProfilePage::setupPageInfo
_ZN11ProfilePage13setupPageInfoESsPKc
SecretLayer::updateMessageLabel
_ZN11SecretLayer18updateMessageLabelESs
AccountLayer::createToggleButton
_ZN12AccountLayer18createToggleButtonESsMN7cocos2d8CCObjectEFvPS1_EbPNS0_6CCMenuENS0_7CCPointE
CCSpritePart::frameChanged
_ZN12CCSpritePart12frameChangedESs
DialogObject::init
_ZN12DialogObject4initESsSsifbN7cocos2d10_ccColor3BE
DialogObject::create
_ZN12DialogObject6createESsSsifbN7cocos2d10_ccColor3BE
FLAlertLayer::init
_ZN12FLAlertLayer4initEP20FLAlertLayerProtocolPKcSsS3_S3_fbf
GJHttpResult::init
_ZN12GJHttpResult4initEbSsSs10GJHttpType
GJHttpResult::create
_ZN12GJHttpResult6createEbSsSs10GJHttpType
GJRewardItem::init
_ZN12GJRewardItem4initEiiSs
GJRewardItem::create
_ZN12GJRewardItem6createEiiSs
OptionsLayer::createToggleButton
_ZN12OptionsLayer18createToggleButtonESsMN7cocos2d8CCObjectEFvPS1_EbPNS0_6CCMenuENS0_7CCPointE
PlayerObject::updateShipSpriteExtra
_ZN12PlayerObject21updateShipSpriteExtraESs
PlayerObject::updatePlayerSpriteExtra
_ZN12PlayerObject23updatePlayerSpriteExtraESs
SecretLayer2::updateMessageLabel
_ZN12SecretLayer218updateMessageLabelESs
SecretLayer4::updateMessageLabel
_ZN12SecretLayer418updateMessageLabelESs
SetTextPopup::init
_ZN12SetTextPopup4initESsSsiSsSsb
SetTextPopup::create
_ZN12SetTextPopup6createESsSsiSsSsb
SupportLayer::createToggleButton
_ZN12SupportLayer18createToggleButtonESsMN7cocos2d8CCObjectEFvPS1_EbPNS0_6CCMenuENS0_7CCPointEPNS0_7CCArrayE
BonusDropdown::init
_ZN13BonusDropdown4initESsi
BonusDropdown::create
_ZN13BonusDropdown6createESsi
ChallengeNode::updateTimeLabel
_ZN13ChallengeNode15updateTimeLabelESs
DS_Dictionary::splitWithForm
_ZN13DS_Dictionary13splitWithFormERKSsRSt6vectorISsSaISsEE
DS_Dictionary::rectFromString
_ZN13DS_Dictionary14rectFromStringERKSsRN7cocos2d6CCRectE
DS_Dictionary::vec2FromString
_ZN13DS_Dictionary14vec2FromStringERKSsRN7cocos2d7CCPointE
DS_Dictionary::setStringForKey
_ZN13DS_Dictionary15setStringForKeyEPKcRKSs
DS_Dictionary::setStringForKey
_ZN13DS_Dictionary15setStringForKeyEPKcRKSsb
DS_Dictionary::setBoolMapForKey
_ZN13DS_Dictionary16setBoolMapForKeyEPKcRSt3mapISsbSt4lessISsESaISt4pairIKSsbEEE
DS_Dictionary::setRectArrayForKey
_ZN13DS_Dictionary18setRectArrayForKeyEPKcRKSt6vectorIN7cocos2d6CCRectESaIS4_EE
DS_Dictionary::setRectArrayForKey
_ZN13DS_Dictionary18setRectArrayForKeyEPKcRKSt6vectorIN7cocos2d6CCRectESaIS4_EEb
DS_Dictionary::setVec2ArrayForKey
_ZN13DS_Dictionary18setVec2ArrayForKeyEPKcRKSt6vectorIN7cocos2d7CCPointESaIS4_EE
DS_Dictionary::setVec2ArrayForKey
_ZN13DS_Dictionary18setVec2ArrayForKeyEPKcRKSt6vectorIN7cocos2d7CCPointESaIS4_EEb
DS_Dictionary::setStringArrayForKey
_ZN13DS_Dictionary20setStringArrayForKeyEPKcRKSt6vectorISsSaISsEE
DS_Dictionary::setStringArrayForKey
_ZN13DS_Dictionary20setStringArrayForKeyEPKcRKSt6vectorISsSaISsEEb
DS_Dictionary::cleanStringWhiteSpace
_ZN13DS_Dictionary21cleanStringWhiteSpaceERKSs
DS_Dictionary::addBoolValuesToMapForKey
_ZN13DS_Dictionary24addBoolValuesToMapForKeyERSt3mapISsbSt4lessISsESaISt4pairIKSsbEEEPKcb
DS_Dictionary::loadRootSubDictFromString
_ZN13DS_Dictionary25loadRootSubDictFromStringESs
DS_Dictionary::addBoolValuesToMapForKeySpecial
_ZN13DS_Dictionary31addBoolValuesToMapForKeySpecialERSt3mapISsbSt4lessISsESaISt4pairIKSsbEEEPKcb
DS_Dictionary::split
_ZN13DS_Dictionary5splitERKSsPKcRSt6vectorISsSaISsEE
DrawGridLayer::loadTimeMarkers
_ZN13DrawGridLayer15loadTimeMarkersESs
GJRobotSprite::init
_ZN13GJRobotSprite4initESs
SongInfoLayer::init
_ZN13SongInfoLayer4initESsSsSsSsSsSs
SongInfoLayer::create
_ZN13SongInfoLayer6createESsSsSsSsSsSs
TutorialPopup::init
_ZN13TutorialPopup4initESs
TutorialPopup::create
_ZN13TutorialPopup6createESs
DailyLevelNode::updateTimeLabel
_ZN14DailyLevelNode15updateTimeLabelESs
GJSearchObject::getSearchKey
_ZN14GJSearchObject12getSearchKeyE10SearchTypeSsSsSsibbbibbbbbbbbii
GJSearchObject::init
_ZN14GJSearchObject4initE10SearchTypeSsSsSsibbbibbbbbbbbii
GJSearchObject::create
_ZN14GJSearchObject6createE10SearchTypeSs
GJSearchObject::create
_ZN14GJSearchObject6createE10SearchTypeSsSsSsibbbibbbbbbbbii
HSVWidgetPopup::init
_ZN14HSVWidgetPopup4initEN7cocos2d11_ccHSVValueEP22HSVWidgetPopupDelegateSs
HSVWidgetPopup::create
_ZN14HSVWidgetPopup6createEN7cocos2d11_ccHSVValueEP22HSVWidgetPopupDelegateSs
SetFolderPopup::setTextPopupClosed
_ZN14SetFolderPopup18setTextPopupClosedEP12SetTextPopupSs
SetFolderPopup::init
_ZN14SetFolderPopup4initEibSs
SetFolderPopup::create
_ZN14SetFolderPopup6createEibSs
SetItemIDLayer::createToggleButton
_ZN14SetItemIDLayer18createToggleButtonESsMN7cocos2d8CCObjectEFvPS1_EbPNS0_6CCMenuENS0_7CCPointE
SongInfoObject::init
_ZN14SongInfoObject4initEiSsSsifSsSsSsi
SongInfoObject::create
_ZN14SongInfoObject6createEiSsSsifSsSsSsi
TextAlertPopup::init
_ZN14TextAlertPopup4initESsff
TextAlertPopup::create
_ZN14TextAlertPopup6createESsff
CCSpriteWithHue::createWithSpriteFrameName
_ZN15CCSpriteWithHue25createWithSpriteFrameNameERKSs
CCSpriteWithHue::create
_ZN15CCSpriteWithHue6createERKSs
CCSpriteWithHue::create
_ZN15CCSpriteWithHue6createERKSsRKN7cocos2d6CCRectE
CCTextInputNode::updateLabel
_ZN15CCTextInputNode11updateLabelESs
CCTextInputNode::setAllowedChars
_ZN15CCTextInputNode15setAllowedCharsESs
CCTextInputNode::setString
_ZN15CCTextInputNode9setStringESs
FMODAudioEngine::playEffect
_ZN15FMODAudioEngine10playEffectESsbfff
FMODAudioEngine::unloadEffect
_ZN15FMODAudioEngine12unloadEffectESs
FMODAudioEngine::preloadEffect
_ZN15FMODAudioEngine13preloadEffectESs
FMODAudioEngine::playBackgroundMusic
_ZN15FMODAudioEngine19playBackgroundMusicESsbb
FMODAudioEngine::preloadBackgroundMusic
_ZN15FMODAudioEngine22preloadBackgroundMusicESs
FMODAudioEngine::isBackgroundMusicPlaying
_ZN15FMODAudioEngine24isBackgroundMusicPlayingESs
GJBaseGameLayer::updateLayerCapacity
_ZN15GJBaseGameLayer19updateLayerCapacityESs
GJChallengeItem::createFromString
_ZN15GJChallengeItem16createFromStringESs
GJChallengeItem::init
_ZN15GJChallengeItem4initE15GJChallengeTypeiiiSs
GJChallengeItem::create
_ZN15GJChallengeItem6createE15GJChallengeTypeiiiSs
GJEffectManager::setupFromString
_ZN15GJEffectManager15setupFromStringESs
GJEffectManager::loadState
_ZN15GJEffectManager9loadStateESs
InfoAlertButton::init
_ZN15InfoAlertButton4initESsSsf
InfoAlertButton::create
_ZN15InfoAlertButton6createESsSsf
LabelGameObject::updateLabel
_ZN15LabelGameObject11updateLabelESs
LabelGameObject::queueUpdateLabel
_ZN15LabelGameObject16queueUpdateLabelESs
LabelGameObject::customObjectSetup
_ZN15LabelGameObject17customObjectSetupERSt3mapISsSsSt4lessISsESaISt4pairIKSsSsEEE
MoreSearchLayer::createToggleButton
_ZN15MoreSearchLayer18createToggleButtonESsMN7cocos2d8CCObjectEFvPS1_EbPNS0_6CCMenuENS0_7CCPointE
PlatformToolbox::doesFileExist
_ZN15PlatformToolbox13doesFileExistESs
PlatformToolbox::copyToClipboard
_ZN15PlatformToolbox15copyToClipboardESs
PlatformToolbox::tryShowRateDialog
_ZN15PlatformToolbox17tryShowRateDialogESs
PlatformToolbox::spriteFromSavedFile
_ZN15PlatformToolbox19spriteFromSavedFileESs
PlatformToolbox::downloadAndSavePromoImage
_ZN15PlatformToolbox25downloadAndSavePromoImageESsSs
PlatformToolbox::saveAndEncryptStringToFile
_ZN15PlatformToolbox26saveAndEncryptStringToFileESsPKcS1_
SetupShakePopup::createToggleButton
_ZN15SetupShakePopup18createToggleButtonESsMN7cocos2d8CCObjectEFvPS1_EbPNS0_6CCMenuENS0_7CCPointEPNS0_7CCArrayE
SetupSpawnPopup::createToggleButton
_ZN15SetupSpawnPopup18createToggleButtonESsMN7cocos2d8CCObjectEFvPS1_EbPNS0_6CCMenuENS0_7CCPointEPNS0_7CCArrayE
TopArtistsLayer::setupPageInfo
_ZN15TopArtistsLayer13setupPageInfoESsPKc
CCAnimatedSprite::runAnimation
_ZN16CCAnimatedSprite12runAnimationESs
CCAnimatedSprite::tweenToAnimation
_ZN16CCAnimatedSprite16tweenToAnimationESsf
CCAnimatedSprite::runAnimationForced
_ZN16CCAnimatedSprite18runAnimationForcedESs
ColorSelectPopup::createToggleButton
_ZN16ColorSelectPopup18createToggleButtonESsMN7cocos2d8CCObjectEFvPS1_EbPNS0_6CCMenuENS0_7CCPointEPNS0_7CCArrayE
EffectGameObject::customObjectSetup
_ZN16EffectGameObject17customObjectSetupERSt3mapISsSsSt4lessISsESaISt4pairIKSsSsEEE
GJAccountManager::syncAccount
_ZN16GJAccountManager11syncAccountESs
GJAccountManager::loginAccount
_ZN16GJAccountManager12loginAccountESsSs
GJAccountManager::backupAccount
_ZN16GJAccountManager13backupAccountESs
GJAccountManager::linkToAccount
_ZN16GJAccountManager13linkToAccountESsSsii
GJAccountManager::handleItDelayed
_ZN16GJAccountManager15handleItDelayedEbSsSs10GJHttpType
GJAccountManager::registerAccount
_ZN16GJAccountManager15registerAccountESsSsSs
GJAccountManager::ProcessHttpRequest
_ZN16GJAccountManager18ProcessHttpRequestESsSsSs10GJHttpType
GJAccountManager::updateAccountSettings
_ZN16GJAccountManager21updateAccountSettingsEiiiSsSsSs
GJAccountManager::onSyncAccountCompleted
_ZN16GJAccountManager22onSyncAccountCompletedESsSs
GJAccountManager::onLoginAccountCompleted
_ZN16GJAccountManager23onLoginAccountCompletedESsSs
GJAccountManager::onBackupAccountCompleted
_ZN16GJAccountManager24onBackupAccountCompletedESsSs
GJAccountManager::onRegisterAccountCompleted
_ZN16GJAccountManager26onRegisterAccountCompletedESsSs
GJAccountManager::onGetAccountSyncURLCompleted
_ZN16GJAccountManager28onGetAccountSyncURLCompletedESsSs
GJAccountManager::onGetAccountBackupURLCompleted
_ZN16GJAccountManager30onGetAccountBackupURLCompletedESsSs
GJAccountManager::onUpdateAccountSettingsCompleted
_ZN16GJAccountManager32onUpdateAccountSettingsCompletedESsSs
GJAccountManager::handleIt
_ZN16GJAccountManager8handleItEbSsSs10GJHttpType
GameLevelManager::setFolderName
_ZN16GameLevelManager13setFolderNameEiSsb
GameLevelManager::storeUserName
_ZN16GameLevelManager13storeUserNameEiiSs
GameLevelManager::uploadComment
_ZN16GameLevelManager13uploadCommentESs11CommentTypeii
GameLevelManager::responseToDict
_ZN16GameLevelManager14responseToDictESsb
GameLevelManager::storeUserNames
_ZN16GameLevelManager14storeUserNamesESs
GameLevelManager::handleItDelayed
_ZN16GameLevelManager15handleItDelayedEbSsSs10GJHttpType
GameLevelManager::getNextLevelName
_ZN16GameLevelManager16getNextLevelNameESs
GameLevelManager::parseRestoreData
_ZN16GameLevelManager16parseRestoreDataESs
GameLevelManager::storeSearchResult
_ZN16GameLevelManager17storeSearchResultEPN7cocos2d7CCArrayESsPKc
GameLevelManager::updateDescription
_ZN16GameLevelManager17updateDescriptionEiSs
GameLevelManager::uploadUserMessage
_ZN16GameLevelManager17uploadUserMessageEiSsSs
GameLevelManager::ProcessHttpRequest
_ZN16GameLevelManager18ProcessHttpRequestESsSsSs10GJHttpType
GameLevelManager::createAndGetLevels
_ZN16GameLevelManager18createAndGetLevelsESs
GameLevelManager::createAndGetScores
_ZN16GameLevelManager18createAndGetScoresESs11GJScoreType
GameLevelManager::onBanUserCompleted
_ZN16GameLevelManager18onBanUserCompletedESsSs
GameLevelManager::uploadLevelComment
_ZN16GameLevelManager18uploadLevelCommentEiSsi
GameLevelManager::onGetUsersCompleted
_ZN16GameLevelManager19onGetUsersCompletedESsSs
GameLevelManager::onLikeItemCompleted
_ZN16GameLevelManager19onLikeItemCompletedESsSs
GameLevelManager::storeCommentsResult
_ZN16GameLevelManager19storeCommentsResultEPN7cocos2d7CCArrayESsPKc
GameLevelManager::uploadFriendRequest
_ZN16GameLevelManager19uploadFriendRequestEiSs
GameLevelManager::createAndGetMapPacks
_ZN16GameLevelManager20createAndGetMapPacksESs
GameLevelManager::onBlockUserCompleted
_ZN16GameLevelManager20onBlockUserCompletedESsSs
GameLevelManager::onRateDemonCompleted
_ZN16GameLevelManager20onRateDemonCompletedESsSs
GameLevelManager::onRateStarsCompleted
_ZN16GameLevelManager20onRateStarsCompletedESsSs
GameLevelManager::removeDelimiterChars
_ZN16GameLevelManager20removeDelimiterCharsESsb
GameLevelManager::uploadAccountComment
_ZN16GameLevelManager20uploadAccountCommentESs
GameLevelManager::onGetMapPacksCompleted
_ZN16GameLevelManager22onGetMapPacksCompletedESsSs
GameLevelManager::onGetUserListCompleted
_ZN16GameLevelManager22onGetUserListCompletedESsSs
GameLevelManager::onReportLevelCompleted
_ZN16GameLevelManager22onReportLevelCompletedESsSs
GameLevelManager::onUnblockUserCompleted
_ZN16GameLevelManager22onUnblockUserCompletedESsSs
GameLevelManager::onUpdateLevelCompleted
_ZN16GameLevelManager22onUpdateLevelCompletedESsSs
GameLevelManager::onUploadLevelCompleted
_ZN16GameLevelManager22onUploadLevelCompletedESsSs
GameLevelManager::onGetGJRewardsCompleted
_ZN16GameLevelManager23onGetGJRewardsCompletedESsSs
GameLevelManager::onGetGauntletsCompleted
_ZN16GameLevelManager23onGetGauntletsCompletedESsSs
GameLevelManager::onRemoveFriendCompleted
_ZN16GameLevelManager23onRemoveFriendCompletedESsSs
GameLevelManager::onRestoreItemsCompleted
_ZN16GameLevelManager23onRestoreItemsCompletedESsSs
GameLevelManager::createAndGetCommentsFull
_ZN16GameLevelManager24createAndGetCommentsFullESsib
GameLevelManager::onDeleteCommentCompleted
_ZN16GameLevelManager24onDeleteCommentCompletedESsSs
GameLevelManager::onDownloadLevelCompleted
_ZN16GameLevelManager24onDownloadLevelCompletedESsSs
GameLevelManager::onGetGJUserInfoCompleted
_ZN16GameLevelManager24onGetGJUserInfoCompletedESsSs
GameLevelManager::onGetTopArtistsCompleted
_ZN16GameLevelManager24onGetTopArtistsCompletedESsSs
GameLevelManager::onSetLevelStarsCompleted
_ZN16GameLevelManager24onSetLevelStarsCompletedESsSs
GameLevelManager::onUploadCommentCompleted
_ZN16GameLevelManager24onUploadCommentCompletedESsSs
GameLevelManager::createAndGetLevelComments
_ZN16GameLevelManager25createAndGetLevelCommentsESsi
GameLevelManager::onSubmitUserInfoCompleted
_ZN16GameLevelManager25onSubmitUserInfoCompletedESsSs
GameLevelManager::onGetGJChallengesCompleted
_ZN16GameLevelManager26onGetGJChallengesCompletedESsSs
GameLevelManager::onGetOnlineLevelsCompleted
_ZN16GameLevelManager26onGetOnlineLevelsCompletedESsSs
GameLevelManager::onGetUserMessagesCompleted
_ZN16GameLevelManager26onGetUserMessagesCompletedESsSs
GameLevelManager::onUpdateUserScoreCompleted
_ZN16GameLevelManager26onUpdateUserScoreCompletedESsSs
GameLevelManager::createAndGetAccountComments
_ZN16GameLevelManager27createAndGetAccountCommentsESsi
GameLevelManager::onGetLevelCommentsCompleted
_ZN16GameLevelManager27onGetLevelCommentsCompletedESsSs
GameLevelManager::onGetLevelSaveDataCompleted
_ZN16GameLevelManager27onGetLevelSaveDataCompletedESsSs
GameLevelManager::onSetLevelFeaturedCompleted
_ZN16GameLevelManager27onSetLevelFeaturedCompletedESsSs
GameLevelManager::onDeleteServerLevelCompleted
_ZN16GameLevelManager28onDeleteServerLevelCompletedESsSs
GameLevelManager::onGetFriendRequestsCompleted
_ZN16GameLevelManager28onGetFriendRequestsCompletedESsSs
GameLevelManager::onReadFriendRequestCompleted
_ZN16GameLevelManager28onReadFriendRequestCompletedESsSs
GameLevelManager::onRequestUserAccessCompleted
_ZN16GameLevelManager28onRequestUserAccessCompletedESsSs
GameLevelManager::onSuggestLevelStarsCompleted
_ZN16GameLevelManager28onSuggestLevelStarsCompletedESsSs
GameLevelManager::onUpdateDescriptionCompleted
_ZN16GameLevelManager28onUpdateDescriptionCompletedESsSs
GameLevelManager::onUploadUserMessageCompleted
_ZN16GameLevelManager28onUploadUserMessageCompletedESsSs
GameLevelManager::onDeleteUserMessagesCompleted
_ZN16GameLevelManager29onDeleteUserMessagesCompletedESsSs
GameLevelManager::onGetAccountCommentsCompleted
_ZN16GameLevelManager29onGetAccountCommentsCompletedESsSs
GameLevelManager::onAcceptFriendRequestCompleted
_ZN16GameLevelManager30onAcceptFriendRequestCompletedESsSs
GameLevelManager::onDeleteFriendRequestCompleted
_ZN16GameLevelManager30onDeleteFriendRequestCompletedESsSs
GameLevelManager::onDownloadUserMessageCompleted
_ZN16GameLevelManager30onDownloadUserMessageCompletedESsSs
GameLevelManager::onGetLevelLeaderboardCompleted
_ZN16GameLevelManager30onGetLevelLeaderboardCompletedESsSs
GameLevelManager::onUploadFriendRequestCompleted
_ZN16GameLevelManager30onUploadFriendRequestCompletedESsSs
GameLevelManager::onGetLeaderboardScoresCompleted
_ZN16GameLevelManager31onGetLeaderboardScoresCompletedESsSs
GameLevelManager::ongetGJDailyLevelStateCompleted
_ZN16GameLevelManager31ongetGJDailyLevelStateCompletedESsSs
GameLevelManager::processOnDownloadLevelCompleted
_ZN16GameLevelManager31processOnDownloadLevelCompletedESsSsb
GameLevelManager::handleIt
_ZN16GameLevelManager8handleItEbSsSs10GJHttpType
GameSoundManager::playEffect
_ZN16GameSoundManager10playEffectESsfff
GameSoundManager::playLoopedSound
_ZN16GameSoundManager15playLoopedSoundESsSsffbbb
GameSoundManager::stopLoopedSound
_ZN16GameSoundManager15stopLoopedSoundESsb
GameSoundManager::pauseLoopedSound
_ZN16GameSoundManager16pauseLoopedSoundESs
GameSoundManager::playUniqueEffect
_ZN16GameSoundManager16playUniqueEffectESs
GameSoundManager::playUniqueEffect
_ZN16GameSoundManager16playUniqueEffectESsfff
GameSoundManager::removeLoopedSound
_ZN16GameSoundManager17removeLoopedSoundESs
GameSoundManager::updateLoopedVolume
_ZN16GameSoundManager18updateLoopedVolumeESsf
GameSoundManager::playBackgroundMusic
_ZN16GameSoundManager19playBackgroundMusicESsbb
GameSoundManager::isLoopedSoundPlaying
_ZN16GameSoundManager20isLoopedSoundPlayingESs
GameStatsManager::isSecretCoin
_ZN16GameStatsManager12isSecretCoinESs
GameStatsManager::isLiteUnlockable
_ZN16GameStatsManager16isLiteUnlockableESs
GameStatsManager::storeRewardState
_ZN16GameStatsManager16storeRewardStateE12GJRewardTypeiiSs
GameStatsManager::isSecretCoinValid
_ZN16GameStatsManager17isSecretCoinValidESs
GameStatsManager::unlockSpecialChest
_ZN16GameStatsManager18unlockSpecialChestESs
GameStatsManager::isSpecialChestUnlocked
_ZN16GameStatsManager22isSpecialChestUnlockedESs
GameStatsManager::getRewardForSpecialChest
_ZN16GameStatsManager24getRewardForSpecialChestESs
LevelEditorLayer::addObjectFromString
_ZN16LevelEditorLayer19addObjectFromStringESs
LevelEditorLayer::createObjectsFromSetup
_ZN16LevelEditorLayer22createObjectsFromSetupESs
LevelEditorLayer::createObjectsFromString
_ZN16LevelEditorLayer23createObjectsFromStringESsb
LevelSearchLayer::getSearchObject
_ZN16LevelSearchLayer15getSearchObjectE10SearchTypeSs
SetTargetIDLayer::createToggleButton
_ZN16SetTargetIDLayer18createToggleButtonESsMN7cocos2d8CCObjectEFvPS1_EbPNS0_6CCMenuENS0_7CCPointE
SetTargetIDLayer::init
_ZN16SetTargetIDLayer4initEP16EffectGameObjectPN7cocos2d7CCArrayESs
SetTargetIDLayer::create
_ZN16SetTargetIDLayer6createEP16EffectGameObjectPN7cocos2d7CCArrayESs
SetupRotatePopup::createToggleButton
_ZN16SetupRotatePopup18createToggleButtonESsMN7cocos2d8CCObjectEFvPS1_EbPNS0_6CCMenuENS0_7CCPointEPNS0_7CCArrayE
AccountLoginLayer::init
_ZN17AccountLoginLayer4initESs
AccountLoginLayer::create
_ZN17AccountLoginLayer6createESs
AudioEffectsLayer::init
_ZN17AudioEffectsLayer4initESs
AudioEffectsLayer::create
_ZN17AudioEffectsLayer6createESs
EditTriggersPopup::createToggleButton
_ZN17EditTriggersPopup18createToggleButtonESsMN7cocos2d8CCObjectEFvPS1_EbPNS0_6CCMenuENS0_7CCPointEPNS0_7CCArrayE
LevelBrowserLayer::setupPageInfo
_ZN17LevelBrowserLayer13setupPageInfoESsPKc
LevelBrowserLayer::setTextPopupClosed
_ZN17LevelBrowserLayer18setTextPopupClosedEP12SetTextPopupSs
LevelBrowserLayer::getLevelMatchingSearch
_ZN17LevelBrowserLayer22getLevelMatchingSearchEPN7cocos2d7CCArrayESs
LocalLevelManager::getAllLevelsWithName
_ZN17LocalLevelManager20getAllLevelsWithNameESs
PulseEffectAction::createFromString
_ZN17PulseEffectAction16createFromStringESs
ShareCommentLayer::init
_ZN17ShareCommentLayer4initESsi11CommentTypei
ShareCommentLayer::create
_ZN17ShareCommentLayer6createESsi11CommentTypei
TouchToggleAction::createFromString
_ZN17TouchToggleAction16createFromStringESs
UploadActionPopup::showFailMessage
_ZN17UploadActionPopup15showFailMessageESs
UploadActionPopup::showSuccessMessage
_ZN17UploadActionPopup18showSuccessMessageESs
UploadActionPopup::init
_ZN17UploadActionPopup4initEP19UploadPopupDelegateSs
UploadActionPopup::create
_ZN17UploadActionPopup6createEP19UploadPopupDelegateSs
VideoOptionsLayer::createToggleButton
_ZN17VideoOptionsLayer18createToggleButtonESsMN7cocos2d8CCObjectEFvPS1_EbPNS0_6CCMenuENS0_7CCPointEffb
AnimatedGameObject::displayFrameChanged
_ZN18AnimatedGameObject19displayFrameChangedEPN7cocos2d8CCObjectESs
CountTriggerAction::createFromString
_ZN18CountTriggerAction16createFromStringESs
GroupCommandObject::createFromString
_ZN18GroupCommandObject16createFromStringESs
LevelSettingsLayer::createToggleButton
_ZN18LevelSettingsLayer18createToggleButtonESsMN7cocos2d8CCObjectEFvPS1_EbPNS0_6CCMenuENS0_7CCPointE
OnlineListDelegate::setupPageInfo
_ZN18OnlineListDelegate13setupPageInfoESsPKc
SpawnTriggerAction::createFromString
_ZN18SpawnTriggerAction16createFromStringESs
SpritePartDelegate::displayFrameChanged
_ZN18SpritePartDelegate19displayFrameChangedEPN7cocos2d8CCObjectESs
CollisionBlockPopup::createToggleButton
_ZN19CollisionBlockPopup18createToggleButtonESsMN7cocos2d8CCObjectEFvPS1_EbPNS0_6CCMenuENS0_7CCPointE
CommunityCreditNode::init
_ZN19CommunityCreditNode4initEiiiSs
CommunityCreditNode::create
_ZN19CommunityCreditNode6createEiiiSs
ConfigureValuePopup::init
_ZN19ConfigureValuePopup4initEP27ConfigureValuePopupDelegatefffSsSs
ConfigureValuePopup::create
_ZN19ConfigureValuePopup6createEP27ConfigureValuePopupDelegatefffSsSs
FRequestProfilePage::setupPageInfo
_ZN19FRequestProfilePage13setupPageInfoESsPKc
GJWriteMessagePopup::updateBody
_ZN19GJWriteMessagePopup10updateBodyESs
GJWriteMessagePopup::updateText
_ZN19GJWriteMessagePopup10updateTextESsi
GJWriteMessagePopup::updateSubject
_ZN19GJWriteMessagePopup13updateSubjectESs
LevelSettingsObject::objectFromString
_ZN19LevelSettingsObject16objectFromStringESs
MessageListDelegate::setupPageInfo
_ZN19MessageListDelegate13setupPageInfoESsPKc
MessagesProfilePage::setupPageInfo
_ZN19MessagesProfilePage13setupPageInfoESsPKc
MultilineBitmapFont::initWithFont
_ZN19MultilineBitmapFont12initWithFontEPKcSsffN7cocos2d7CCPointEib
MultilineBitmapFont::readColorInfo
_ZN19MultilineBitmapFont13readColorInfoESs
MultilineBitmapFont::createWithFont
_ZN19MultilineBitmapFont14createWithFontEPKcSsffN7cocos2d7CCPointEib
MultilineBitmapFont::stringWithMaxWidth
_ZN19MultilineBitmapFont18stringWithMaxWidthESsff
OpacityEffectAction::createFromString
_ZN19OpacityEffectAction16createFromStringESs
SetupAnimationPopup::createToggleButton
_ZN19SetupAnimationPopup18createToggleButtonESsMN7cocos2d8CCObjectEFvPS1_EbPNS0_6CCMenuENS0_7CCPointEPNS0_7CCArrayE
ToggleTriggerAction::createFromString
_ZN19ToggleTriggerAction16createFromStringESs
AccountRegisterLayer::validEmail
_ZN20AccountRegisterLayer10validEmailESs
AccountRegisterLayer::validPassword
_ZN20AccountRegisterLayer13validPasswordESs
AccountRegisterLayer::createTextInput
_ZN20AccountRegisterLayer15createTextInputEN7cocos2d7CCPointENS0_6CCSizeESsi
AccountRegisterLayer::createTextLabel
_ZN20AccountRegisterLayer15createTextLabelEN7cocos2d7CCPointESsNS0_6CCSizeE
AccountRegisterLayer::validUser
_ZN20AccountRegisterLayer9validUserESs
CustomizeObjectLayer::createToggleButton
_ZN20CustomizeObjectLayer18createToggleButtonESsMN7cocos2d8CCObjectEFvPS1_EbPNS0_6CCMenuENS0_7CCPointE
LevelCommentDelegate::setupPageInfo
_ZN20LevelCommentDelegate13setupPageInfoESsPKc
LevelManagerDelegate::setupPageInfo
_ZN20LevelManagerDelegate13setupPageInfoESsPKc
MusicDownloadManager::responseToDict
_ZN20MusicDownloadManager14responseToDictESsPKc
MusicDownloadManager::createSongsInfo
_ZN20MusicDownloadManager15createSongsInfoESs
MusicDownloadManager::handleItDelayed
_ZN20MusicDownloadManager15handleItDelayedEbSsSs10GJHttpType
MusicDownloadManager::ProcessHttpRequest
_ZN20MusicDownloadManager18ProcessHttpRequestESsSsSs10GJHttpType
MusicDownloadManager::onGetSongInfoCompleted
_ZN20MusicDownloadManager22onGetSongInfoCompletedESsSs
MusicDownloadManager::addSongObjectFromString
_ZN20MusicDownloadManager23addSongObjectFromStringESs
MusicDownloadManager::handleIt
_ZN20MusicDownloadManager8handleItEbSsSs10GJHttpType
SetTextPopupDelegate::setTextPopupClosed
_ZN20SetTextPopupDelegate18setTextPopupClosedEP12SetTextPopupSs
TeleportPortalObject::customObjectSetup
_ZN20TeleportPortalObject17customObjectSetupERSt3mapISsSsSt4lessISsESaISt4pairIKSsSsEEE
CreateGuidelinesLayer::getMergedRecordString
_ZN21CreateGuidelinesLayer21getMergedRecordStringESsSs
FriendRequestDelegate::setupPageInfo
_ZN21FriendRequestDelegate13setupPageInfoESsPKc
SetupTouchTogglePopup::createToggleButton
_ZN21SetupTouchTogglePopup18createToggleButtonESsMN7cocos2d8CCObjectEFvPS1_EbPNS0_6CCMenuENS0_7CCPointEPNS0_7CCArrayE
CollisionTriggerAction::createFromString
_ZN22CollisionTriggerAction16createFromStringESs
ColorSelectLiveOverlay::createToggleButton
_ZN22ColorSelectLiveOverlay18createToggleButtonESsMN7cocos2d8CCObjectEFvPS1_EbPNS0_6CCMenuENS0_7CCPointE
GJAccountSettingsLayer::createToggleButton
_ZN22GJAccountSettingsLayer18createToggleButtonESsMN7cocos2d8CCObjectEFvPS1_EbPNS0_6CCMenuENS0_7CCPointEff
SetupAnimSettingsPopup::createToggleButton
_ZN22SetupAnimSettingsPopup18createToggleButtonESsMN7cocos2d8CCObjectEFvPS1_EbPNS0_6CCMenuENS0_7CCPointEPNS0_7CCArrayE
SetupCountTriggerPopup::createToggleButton
_ZN22SetupCountTriggerPopup18createToggleButtonESsMN7cocos2d8CCObjectEFvPS1_EbPNS0_6CCMenuENS0_7CCPointEPNS0_7CCArrayE
SetupInstantCountPopup::createToggleButton
_ZN22SetupInstantCountPopup18createToggleButtonESsMN7cocos2d8CCObjectEFvPS1_EbPNS0_6CCMenuENS0_7CCPointEPNS0_7CCArrayE
SetupObjectTogglePopup::createToggleButton
_ZN22SetupObjectTogglePopup18createToggleButtonESsMN7cocos2d8CCObjectEFvPS1_EbPNS0_6CCMenuENS0_7CCPointEPNS0_7CCArrayE
SpriteAnimationManager::getAnimType
_ZN22SpriteAnimationManager11getAnimTypeESs
SpriteAnimationManager::runAnimation
_ZN22SpriteAnimationManager12runAnimationESs
SpriteAnimationManager::initWithOwner
_ZN22SpriteAnimationManager13initWithOwnerEP16CCAnimatedSpriteSs
SpriteAnimationManager::loadAnimations
_ZN22SpriteAnimationManager14loadAnimationsESs
SpriteAnimationManager::queueAnimation
_ZN22SpriteAnimationManager14queueAnimationESs
SpriteAnimationManager::storeAnimation
_ZN22SpriteAnimationManager14storeAnimationEPN7cocos2d9CCAnimateES2_Ssi10spriteModePNS0_13CCSpriteFrameE
SpriteAnimationManager::createWithOwner
_ZN22SpriteAnimationManager15createWithOwnerEP16CCAnimatedSpriteSs
SpriteAnimationManager::finishAnimation
_ZN22SpriteAnimationManager15finishAnimationESs
SpriteAnimationManager::createAnimations
_ZN22SpriteAnimationManager16createAnimationsESs
SpriteAnimationManager::executeAnimation
_ZN22SpriteAnimationManager16executeAnimationESs
SpriteAnimationManager::playSoundForAnimation
_ZN22SpriteAnimationManager21playSoundForAnimationESs
SpriteAnimationManager::storeSoundForAnimation
_ZN22SpriteAnimationManager22storeSoundForAnimationEPN7cocos2d8CCStringESsf
SpriteAnimationManager::switchToFirstFrameOfAnimation
_ZN22SpriteAnimationManager29switchToFirstFrameOfAnimationESs
SpriteAnimationManager::getPrio
_ZN22SpriteAnimationManager7getPrioESs
SpriteAnimationManager::playSound
_ZN22SpriteAnimationManager9playSoundESs
SetupPickupTriggerPopup::createToggleButton
_ZN23SetupPickupTriggerPopup18createToggleButtonESsMN7cocos2d8CCObjectEFvPS1_EbPNS0_6CCMenuENS0_7CCPointEPNS0_7CCArrayE
SetupInteractObjectPopup::createToggleButton
_ZN24SetupInteractObjectPopup18createToggleButtonESsMN7cocos2d8CCObjectEFvPS1_EbPNS0_6CCMenuENS0_7CCPointEPNS0_7CCArrayE
SetupCollisionTriggerPopup::createToggleButton
_ZN26SetupCollisionTriggerPopup18createToggleButtonESsMN7cocos2d8CCObjectEFvPS1_EbPNS0_6CCMenuENS0_7CCPointEPNS0_7CCArrayE
UpdateAccountSettingsPopup::init
_ZN26UpdateAccountSettingsPopup4initEP22GJAccountSettingsLayeriiiSsSsSs
UpdateAccountSettingsPopup::create
_ZN26UpdateAccountSettingsPopup6createEP22GJAccountSettingsLayeriiiSsSsSs
llvm::ConvertUTF8toWide
_ZN4llvm17ConvertUTF8toWideEjRKSsRPcRPKh
llvm::convertUTF16ToUTF8String
_ZN4llvm24convertUTF16ToUTF8StringERKSbItSt11char_traitsItESaItEERSs
pugi::xml_document::load
_ZN4pugi12xml_document4loadERSijNS_12xml_encodingE
pugi::xml_document::load
_ZN4pugi12xml_document4loadERSt13basic_istreamIwSt11char_traitsIwEEj
pugi::xml_writer_stream::xml_writer_stream
_ZN4pugi17xml_writer_streamC1ERSo
pugi::xml_writer_stream::xml_writer_stream
_ZN4pugi17xml_writer_streamC1ERSt13basic_ostreamIwSt11char_traitsIwEE
pugi::xml_writer_stream::xml_writer_stream
_ZN4pugi17xml_writer_streamC2ERSo
pugi::xml_writer_stream::xml_writer_stream
_ZN4pugi17xml_writer_streamC2ERSt13basic_ostreamIwSt11char_traitsIwEE
pugi::as_utf8
_ZN4pugi7as_utf8ERKSbIwSt11char_traitsIwESaIwEE
pugi::as_wide
_ZN4pugi7as_wideERKSs
cocos2d::CCSequence::createWithVariableList
_ZN7cocos2d10CCSequence22createWithVariableListEPNS_18CCFiniteTimeActionESt9__va_list
cocos2d::CCFileUtils::writeToFile
_ZN7cocos2d11CCFileUtils11writeToFileEPNS_12CCDictionaryERKSs
cocos2d::CCFileUtils::isAbsolutePath
_ZN7cocos2d11CCFileUtils14isAbsolutePathERKSs
cocos2d::CCFileUtils::setSearchPaths
_ZN7cocos2d11CCFileUtils14setSearchPathsERKSt6vectorISsSaISsEE
cocos2d::CCFileUtils::getPathForFilename
_ZN7cocos2d11CCFileUtils18getPathForFilenameERKSsS2_S2_
cocos2d::CCFileUtils::setSearchResolutionsOrder
_ZN7cocos2d11CCFileUtils25setSearchResolutionsOrderERKSt6vectorISsSaISsEE
cocos2d::CCFileUtils::createCCArrayWithContentsOfFile
_ZN7cocos2d11CCFileUtils31createCCArrayWithContentsOfFileERKSs
cocos2d::CCFileUtils::getFullPathForDirectoryAndFilename
_ZN7cocos2d11CCFileUtils34getFullPathForDirectoryAndFilenameERKSsS2_
cocos2d::CCFileUtils::createCCDictionaryWithContentsOfFile
_ZN7cocos2d11CCFileUtils36createCCDictionaryWithContentsOfFileERKSs
cocos2d::CCFileUtils::addSuffix
_ZN7cocos2d11CCFileUtils9addSuffixESsSs
cocos2d::CCDictionary::charForKey
_ZN7cocos2d12CCDictionary10charForKeyERKSs
cocos2d::CCDictionary::valueForKey
_ZN7cocos2d12CCDictionary11valueForKeyERKSs
cocos2d::CCDictionary::objectForKey
_ZN7cocos2d12CCDictionary12objectForKeyERKSs
cocos2d::CCDictionary::setObjectUnSafe
_ZN7cocos2d12CCDictionary15setObjectUnSafeEPNS_8CCObjectERKSs
cocos2d::CCDictionary::removeObjectForKey
_ZN7cocos2d12CCDictionary18removeObjectForKeyERKSs
cocos2d::CCDictionary::setObject
_ZN7cocos2d12CCDictionary9setObjectEPNS_8CCObjectERKSs
cocos2d::CCPointArray::setControlPoints
_ZN7cocos2d12CCPointArray16setControlPointsEPSt6vectorIPNS_7CCPointESaIS3_EE
cocos2d::CCUserDefault::getStringForKey
_ZN7cocos2d13CCUserDefault15getStringForKeyEPKcRKSs
cocos2d::CCUserDefault::setStringForKey
_ZN7cocos2d13CCUserDefault15setStringForKeyEPKcRKSs
cocos2d::cc_utf8_trim_ws
_ZN7cocos2d15cc_utf8_trim_wsEPSt6vectorItSaItEE
cocos2d::CCLayerMultiplex::initWithLayers
_ZN7cocos2d16CCLayerMultiplex14initWithLayersEPNS_7CCLayerESt9__va_list
cocos2d::CCMenuItemToggle::initWithTarget
_ZN7cocos2d16CCMenuItemToggle14initWithTargetEPNS_8CCObjectEMS1_FvS2_EPNS_10CCMenuItemESt9__va_list
cocos2d::CCFileUtilsAndroid::isFileExist
_ZN7cocos2d18CCFileUtilsAndroid11isFileExistERKSs
cocos2d::CCFileUtilsAndroid::isAbsolutePath
_ZN7cocos2d18CCFileUtilsAndroid14isAbsolutePathERKSs
cocos2d::CCBMFontConfiguration::parseKerningEntry
_ZN7cocos2d21CCBMFontConfiguration17parseKerningEntryESs
cocos2d::CCBMFontConfiguration::parseImageFileName
_ZN7cocos2d21CCBMFontConfiguration18parseImageFileNameESsPKc
cocos2d::CCBMFontConfiguration::parseInfoArguments
_ZN7cocos2d21CCBMFontConfiguration18parseInfoArgumentsESs
cocos2d::CCBMFontConfiguration::parseCommonArguments
_ZN7cocos2d21CCBMFontConfiguration20parseCommonArgumentsESs
cocos2d::CCBMFontConfiguration::parseCharacterDefinition
_ZN7cocos2d21CCBMFontConfiguration24parseCharacterDefinitionESsPNS_10_BMFontDefE
cocos2d::cc_utf8_find_last_not_char
_ZN7cocos2d26cc_utf8_find_last_not_charERKSt6vectorItSaItEEt
cocos2d::getCharacterCountInUTF8String
_ZN7cocos2d29getCharacterCountInUTF8StringERKSs
cocos2d::CCMenu::createWithItems
_ZN7cocos2d6CCMenu15createWithItemsEPNS_10CCMenuItemESt9__va_list
cocos2d::CCMenu::alignItemsInRows
_ZN7cocos2d6CCMenu16alignItemsInRowsEjSt9__va_list
cocos2d::CCMenu::alignItemsInColumns
_ZN7cocos2d6CCMenu19alignItemsInColumnsEjSt9__va_list
cocos2d::CCSpawn::createWithVariableList
_ZN7cocos2d7CCSpawn22createWithVariableListEPNS_18CCFiniteTimeActionESt9__va_list
cocos2d::ZipFile::getFileData
_ZN7cocos2d7ZipFile11getFileDataERKSsPm
cocos2d::ZipFile::getFileData
_ZN7cocos2d7ZipFile11getFileDataERKSsPmPNS_14ZipFilePrivateE
cocos2d::ZipFile::setFilter
_ZN7cocos2d7ZipFile9setFilterERKSs
cocos2d::ZipFile::setFilter
_ZN7cocos2d7ZipFile9setFilterERKSsPNS_14ZipFilePrivateE
cocos2d::ZipFile::ZipFile
_ZN7cocos2d7ZipFileC1ERKSsS2_
cocos2d::ZipFile::ZipFile
_ZN7cocos2d7ZipFileC2ERKSsS2_
cocos2d::CCString::initWithFormatAndValist
_ZN7cocos2d8CCString23initWithFormatAndValistEPKcSt9__va_list
cocos2d::CCString::create
_ZN7cocos2d8CCString6createERKSs
cocos2d::CCString::CCString
_ZN7cocos2d8CCStringC1ERKSs
cocos2d::CCString::CCString
_ZN7cocos2d8CCStringC2ERKSs
cocos2d::ZipUtils::compressString
_ZN7cocos2d8ZipUtils14compressStringESsbi
cocos2d::ZipUtils::encryptDecrypt
_ZN7cocos2d8ZipUtils14encryptDecryptESsi
cocos2d::ZipUtils::base64DecodeEnc
_ZN7cocos2d8ZipUtils15base64DecodeEncESsSs
cocos2d::ZipUtils::base64EncodeEnc
_ZN7cocos2d8ZipUtils15base64EncodeEncESsSs
cocos2d::ZipUtils::base64URLDecode
_ZN7cocos2d8ZipUtils15base64URLDecodeESs
cocos2d::ZipUtils::base64URLEncode
_ZN7cocos2d8ZipUtils15base64URLEncodeESs
cocos2d::ZipUtils::decompressString
_ZN7cocos2d8ZipUtils16decompressStringESsbi
cocos2d::ZipUtils::encryptDecryptWKey
_ZN7cocos2d8ZipUtils18encryptDecryptWKeyESsSs
cocos2d::ZipUtils::hexToChar
_ZN7cocos2d8ZipUtils9hexToCharERKSs
cocos2d::ZipUtils::urlDecode
_ZN7cocos2d8ZipUtils9urlDecodeERKSs
cocos2d::extension::CCControlButton::initWithTitleAndFontNameAndFontSize
_ZN7cocos2d9extension15CCControlButton35initWithTitleAndFontNameAndFontSizeESsPKcf
cocos2d::extension::CCControlButton::create
_ZN7cocos2d9extension15CCControlButton6createESsPKcf
cocos2d::extension::WebSocket::init
_ZN7cocos2d9extension9WebSocket4initERKNS1_8DelegateERKSsPKSt6vectorISsSaISsEE
cocos2d::extension::WebSocket::send
_ZN7cocos2d9extension9WebSocket4sendERKSs
EditorUI::pasteObjects
_ZN8EditorUI12pasteObjectsESs
EditorUI::getSimpleButton
_ZN8EditorUI15getSimpleButtonESsMN7cocos2d8CCObjectEFvPS1_EPNS0_6CCMenuE
EditorUI::menuItemFromObjectString
_ZN8EditorUI24menuItemFromObjectStringESsi
GManager::tryLoadData
_ZN8GManager11tryLoadDataEP13DS_DictionarySs
GManager::loadFromString
_ZN8GManager14loadFromStringESs
GManager::loadDataFromFile
_ZN8GManager16loadDataFromFileESs
GManager::loadFromCompressedString
_ZN8GManager24loadFromCompressedStringESs
GManager::saveData
_ZN8GManager8saveDataEP13DS_DictionarySs
GManager::saveGMTo
_ZN8GManager8saveGMToESs
GameCell::loadFromString
_ZN8GameCell14loadFromStringESs
TextArea::init
_ZN8TextArea4initESsPKcffN7cocos2d7CCPointEfb
TextArea::create
_ZN8TextArea6createESsPKcffN7cocos2d7CCPointEfb
TextArea::setString
_ZN8TextArea9setStringESs
GJMapPack::parsePackColors
_ZN9GJMapPack15parsePackColorsESsSs
GJMapPack::parsePackLevels
_ZN9GJMapPack15parsePackLevelsESs
InfoLayer::setupPageInfo
_ZN9InfoLayer13setupPageInfoESsPKc
PlayLayer::setupReplay
_ZN9PlayLayer11setupReplayESs
PlayLayer::claimParticle
_ZN9PlayLayer13claimParticleESs
PlayLayer::getParticleKey2
_ZN9PlayLayer15getParticleKey2ESs
PlayLayer::loadSavedObjectsState
_ZN9PlayLayer21loadSavedObjectsStateESs
PlayLayer::createObjectsFromSetup
_ZN9PlayLayer22createObjectsFromSetupESs
pugi::xml_document::save const
_ZNK4pugi12xml_document4saveERSoPKcjNS_12xml_encodingE
pugi::xml_document::save const
_ZNK4pugi12xml_document4saveERSt13basic_ostreamIwSt11char_traitsIwEEPKcj
pugi::xml_node::print const
_ZNK4pugi8xml_node5printERSoPKcjNS_12xml_encodingEj
pugi::xml_node::print const
_ZNK4pugi8xml_node5printERSt13basic_ostreamIwSt11char_traitsIwEEPKcjj
cocos2d::CCConfiguration::checkForGLExtension const
_ZNK7cocos2d15CCConfiguration19checkForGLExtensionERKSs
cocos2d::ZipFile::fileExists const
_ZNK7cocos2d7ZipFile10fileExistsERKSs
